; Function Attrs: mustprogress uwtable
define internal void @_ZN11opencv_test12_GLOBAL__N_140gtest_Perf_Barcode_single_EvalGenerator_B5cxx11Ev(ptr dead_on_unwind noalias writable sret(%"class.testing::internal::ParamGenerator") align 8 %0) #3 {
  %2 = alloca %"class.testing::internal::CartesianProductHolder2.67", align 8
  store ptr @.str.63, ptr %2, align 8, !alias.scope !10
  %3 = getelementptr inbounds i8, ptr %2, i64 8
  store ptr @.str.64, ptr %3, align 8, !alias.scope !10
  %4 = getelementptr inbounds i8, ptr %2, i64 16
  store ptr @.str.65, ptr %4, align 8, !alias.scope !10
  %5 = getelementptr inbounds i8, ptr %2, i64 24
  store i64 1546188227040, ptr %5, align 8, !alias.scope !10
  %6 = getelementptr inbounds i8, ptr %2, i64 32
  store i64 2061584302720, ptr %6, align 8, !alias.scope !10
  %7 = getelementptr inbounds i8, ptr %2, i64 40
  store i64 2576980378400, ptr %7, align 8, !alias.scope !10
  call void @_ZNK7testing8internal23CartesianProductHolder2INS0_11ValueArray3IPKcS4_S4_EENS2_IN2cv5Size_IiEES8_S8_EEEcvNS0_14ParamGeneratorISt5tupleIJT_T0_EEEEINSt7__cxx1112basic_stringIcSt11char_traitsIcESaIcEEES8_EEv(ptr dead_on_unwind writable sret(%"class.testing::internal::ParamGenerator") align 8 %0, ptr noundef nonnull align 8 dereferenceable(48) %2)
  ret void
}